; Function Attrs: nounwind uwtable
define zeroext range(i8 0, 2) i8 @l_Array_anyMUnsafe_any___at_Lean_Compiler_LCNF_Simp_addDefaultAlt___spec__3(ptr noundef readonly captures(none) %0, i64 noundef %1, i64 noundef %2) local_unnamed_addr #0 {
  %.not32 = icmp eq i64 %1, %2
  br i1 %.not32, label %.loopexit, label %.lr.ph

.lr.ph:                                           ; preds = %3
  %4 = getelementptr inbounds nuw i8, ptr %0, i64 24
  br label %5

5:                                                ; preds = %.lr.ph, %lean_dec.exit
  %.01433 = phi i64 [ %1, %.lr.ph ], [ %30, %lean_dec.exit ]
  %6 = getelementptr inbounds nuw [0 x ptr], ptr %4, i64 0, i64 %.01433
  %7 = load ptr, ptr %6, align 8, !tbaa !4
  %8 = ptrtoint ptr %7 to i64
  %9 = and i64 %8, 1
  %.not.i22 = icmp eq i64 %9, 0
  br i1 %.not.i22, label %10, label %lean_obj_tag.exit

10:                                               ; preds = %5
  %.val.i.i = load i32, ptr %7, align 4, !tbaa !9
  %11 = icmp sgt i32 %.val.i.i, 0
  br i1 %11, label %12, label %14, !prof !12

12:                                               ; preds = %10
  %13 = add nuw i32 %.val.i.i, 1
  store i32 %13, ptr %7, align 4, !tbaa !9
  br label %lean_obj_tag.exit.thread

14:                                               ; preds = %10
  %.not.i.i = icmp eq i32 %.val.i.i, 0
  br i1 %.not.i.i, label %lean_obj_tag.exit.thread, label %15

15:                                               ; preds = %14
  tail call void @lean_inc_ref_cold(ptr noundef nonnull %7) #4
  br label %lean_obj_tag.exit.thread

lean_obj_tag.exit:                                ; preds = %5
  %16 = and i64 %8, 8589934590
  %17 = icmp eq i64 %16, 0
  br i1 %17, label %lean_dec.exit, label %.loopexit

lean_obj_tag.exit.thread:                         ; preds = %15, %14, %12
  %18 = getelementptr i8, ptr %7, i64 4
  %.val.i = load i32, ptr %18, align 4
  %19 = icmp ult i32 %.val.i, 16777216
  %20 = load i32, ptr %7, align 4, !tbaa !9
  %21 = icmp sgt i32 %20, 1
  br i1 %19, label %.thread, label %.thread25

.thread:                                          ; preds = %lean_obj_tag.exit.thread
  br i1 %21, label %22, label %24, !prof !12

22:                                               ; preds = %.thread
  %23 = add nsw i32 %20, -1
  store i32 %23, ptr %7, align 4, !tbaa !9
  br label %lean_dec.exit

24:                                               ; preds = %.thread
  %.not.i = icmp eq i32 %20, 0
  br i1 %.not.i, label %lean_dec.exit, label %25

25:                                               ; preds = %24
  tail call void @lean_dec_ref_cold(ptr noundef nonnull %7) #4
  br label %lean_dec.exit

.thread25:                                        ; preds = %lean_obj_tag.exit.thread
  br i1 %21, label %26, label %28, !prof !12

26:                                               ; preds = %.thread25
  %27 = add nsw i32 %20, -1
  store i32 %27, ptr %7, align 4, !tbaa !9
  br label %.loopexit

28:                                               ; preds = %.thread25
  %.not.i20 = icmp eq i32 %20, 0
  br i1 %.not.i20, label %.loopexit, label %29

29:                                               ; preds = %28
  tail call void @lean_dec_ref_cold(ptr noundef nonnull %7) #4
  br label %.loopexit

lean_dec.exit:                                    ; preds = %lean_obj_tag.exit, %22, %24, %25
  %30 = add i64 %.01433, 1
  %.not = icmp eq i64 %30, %2
  br i1 %.not, label %.loopexit, label %5

.loopexit:                                        ; preds = %lean_dec.exit, %lean_obj_tag.exit, %3, %29, %28, %26
  %.2.ph = phi i8 [ 1, %26 ], [ 1, %28 ], [ 1, %29 ], [ 0, %3 ], [ 0, %lean_dec.exit ], [ 1, %lean_obj_tag.exit ]
  ret i8 %.2.ph
}